target datalayout = "e-m:e-p270:32:32-p271:32:32-p272:64:64-i64:64-i128:128-f80:128-n8:16:32:64-S128"
target triple = "x86_64-unknown-linux-gnu"

; Function Attrs: mustprogress uwtable
define hidden void @_ZN4cvc58internal3smt14ContextManager14notifyCheckSatEb(ptr noundef nonnull align 8 dereferenceable(61) %this, i1 noundef zeroext %hasAssumptions) #4 align 2 {
entry:
  %this.addr = alloca ptr, align 8
  %hasAssumptions.addr = alloca i8, align 1
  store ptr %this, ptr %this.addr, align 8
  %frombool = zext i1 %hasAssumptions to i8
  store i8 %frombool, ptr %hasAssumptions.addr, align 1
  %this1 = load ptr, ptr %this.addr, align 8
  %0 = load i8, ptr %hasAssumptions.addr, align 1
  %tobool = trunc i8 %0 to i1
  br i1 %tobool, label %if.then, label %if.end

if.then:                                          ; preds = %entry
  call void @_ZN4cvc58internal3smt14ContextManager12internalPushEv(ptr noundef nonnull align 8 dereferenceable(61) %this1)
  br label %if.end

if.end:                                           ; preds = %if.then, %entry
  ret void
}