; Function Attrs: mustprogress uwtable
define hidden void @_ZN4cvc58internal3smt14ContextManager14notifyCheckSatEb(ptr noundef nonnull align 8 dereferenceable(61) %this, i1 noundef zeroext %hasAssumptions) local_unnamed_addr #3 align 2 {
entry:
  br i1 %hasAssumptions, label %if.then, label %if.end

if.then:                                          ; preds = %entry
  tail call void @_ZN4cvc58internal3smt14ContextManager12internalPushEv(ptr noundef nonnull align 8 dereferenceable(61) %this)
  br label %if.end

if.end:                                           ; preds = %if.then, %entry
  ret void
}